; Function Attrs: nounwind uwtable
define internal ptr @get_tmp_evp_method_store(ptr noundef captures(none) %0) #0 {
  %2 = getelementptr inbounds nuw i8, ptr %0, i64 32
  %3 = load ptr, ptr %2, align 8, !tbaa !12
  %4 = icmp eq ptr %3, null
  br i1 %4, label %5, label %8

5:                                                ; preds = %1
  %6 = load ptr, ptr %0, align 8, !tbaa !3
  %7 = tail call ptr @ossl_method_store_new(ptr noundef %6) #5
  store ptr %7, ptr %2, align 8, !tbaa !12
  br label %8

8:                                                ; preds = %1, %5
  %9 = phi ptr [ %3, %1 ], [ %7, %5 ]
  ret ptr %9
}